; ModuleID = '5/816.c'
source_filename = "5/816.c"
target datalayout = "e-m:e-p270:32:32-p271:32:32-p272:64:64-i64:64-f80:128-n8:16:32:64-S128"
target triple = "x86_64-pc-linux-gnu"

@.str = private unnamed_addr constant [8 x i8] c"%lf%s%s\00", align 1
@.str.1 = private unnamed_addr constant [6 x i8] c"error\00", align 1
@.str.2 = private unnamed_addr constant [4 x i8] c"yes\00", align 1
@.str.3 = private unnamed_addr constant [3 x i8] c"no\00", align 1

; Function Attrs: noinline nounwind uwtable
define dso_local i32 @main() #0 {
  %1 = alloca i32, align 4
  %2 = alloca i32, align 4
  %3 = alloca i32, align 4
  %4 = alloca i32, align 4
  %5 = alloca i32, align 4
  %6 = alloca i32, align 4
  %7 = alloca [1 x [501 x i8]], align 16
  %8 = alloca [1 x [501 x i8]], align 16
  %9 = alloca double, align 8
  %10 = alloca double, align 8
  store i32 0, i32* %1, align 4
  store i32 0, i32* %5, align 4
  store i32 0, i32* %6, align 4
  %11 = getelementptr inbounds [1 x [501 x i8]], [1 x [501 x i8]]* %7, i64 0, i64 0
  %12 = getelementptr inbounds [501 x i8], [501 x i8]* %11, i64 0, i64 0
  %13 = getelementptr inbounds [1 x [501 x i8]], [1 x [501 x i8]]* %8, i64 0, i64 0
  %14 = getelementptr inbounds [501 x i8], [501 x i8]* %13, i64 0, i64 0
  %15 = call i32 (i8*, ...) @__isoc99_scanf(i8* getelementptr inbounds ([8 x i8], [8 x i8]* @.str, i64 0, i64 0), double* %9, i8* %12, i8* %14)
  %16 = getelementptr inbounds [1 x [501 x i8]], [1 x [501 x i8]]* %7, i64 0, i64 0
  %17 = getelementptr inbounds [501 x i8], [501 x i8]* %16, i64 0, i64 0
  %18 = call i64 @strlen(i8* %17) #3
  %19 = trunc i64 %18 to i32
  store i32 %19, i32* %2, align 4
  %20 = getelementptr inbounds [1 x [501 x i8]], [1 x [501 x i8]]* %8, i64 0, i64 0
  %21 = getelementptr inbounds [501 x i8], [501 x i8]* %20, i64 0, i64 0
  %22 = call i64 @strlen(i8* %21) #3
  %23 = trunc i64 %22 to i32
  store i32 %23, i32* %3, align 4
  %24 = load i32, i32* %2, align 4
  %25 = load i32, i32* %3, align 4
  %26 = icmp ne i32 %24, %25
  br i1 %26, label %27, label %31

27:                                               ; preds = %0
  %28 = load i32, i32* %6, align 4
  %29 = add nsw i32 %28, 1
  store i32 %29, i32* %6, align 4
  %30 = call i32 (i8*, ...) @printf(i8* getelementptr inbounds ([6 x i8], [6 x i8]* @.str.1, i64 0, i64 0))
  br label %127

31:                                               ; preds = %0
  store i32 0, i32* %4, align 4
  br label %32

32:                                               ; preds = %123, %31
  %33 = load i32, i32* %4, align 4
  %34 = load i32, i32* %2, align 4
  %35 = icmp slt i32 %33, %34
  br i1 %35, label %36, label %126

36:                                               ; preds = %32
  %37 = getelementptr inbounds [1 x [501 x i8]], [1 x [501 x i8]]* %7, i64 0, i64 0
  %38 = load i32, i32* %4, align 4
  %39 = sext i32 %38 to i64
  %40 = getelementptr inbounds [501 x i8], [501 x i8]* %37, i64 0, i64 %39
  %41 = load i8, i8* %40, align 1
  %42 = sext i8 %41 to i32
  %43 = icmp ne i32 %42, 65
  br i1 %43, label %44, label %68

44:                                               ; preds = %36
  %45 = getelementptr inbounds [1 x [501 x i8]], [1 x [501 x i8]]* %7, i64 0, i64 0
  %46 = load i32, i32* %4, align 4
  %47 = sext i32 %46 to i64
  %48 = getelementptr inbounds [501 x i8], [501 x i8]* %45, i64 0, i64 %47
  %49 = load i8, i8* %48, align 1
  %50 = sext i8 %49 to i32
  %51 = icmp ne i32 %50, 84
  br i1 %51, label %52, label %68

52:                                               ; preds = %44
  %53 = getelementptr inbounds [1 x [501 x i8]], [1 x [501 x i8]]* %7, i64 0, i64 0
  %54 = load i32, i32* %4, align 4
  %55 = sext i32 %54 to i64
  %56 = getelementptr inbounds [501 x i8], [501 x i8]* %53, i64 0, i64 %55
  %57 = load i8, i8* %56, align 1
  %58 = sext i8 %57 to i32
  %59 = icmp ne i32 %58, 67
  br i1 %59, label %60, label %68

60:                                               ; preds = %52
  %61 = getelementptr inbounds [1 x [501 x i8]], [1 x [501 x i8]]* %7, i64 0, i64 0
  %62 = load i32, i32* %4, align 4
  %63 = sext i32 %62 to i64
  %64 = getelementptr inbounds [501 x i8], [501 x i8]* %61, i64 0, i64 %63
  %65 = load i8, i8* %64, align 1
  %66 = sext i8 %65 to i32
  %67 = icmp ne i32 %66, 71
  br i1 %67, label %100, label %68

68:                                               ; preds = %60, %52, %44, %36
  %69 = getelementptr inbounds [1 x [501 x i8]], [1 x [501 x i8]]* %8, i64 0, i64 0
  %70 = load i32, i32* %4, align 4
  %71 = sext i32 %70 to i64
  %72 = getelementptr inbounds [501 x i8], [501 x i8]* %69, i64 0, i64 %71
  %73 = load i8, i8* %72, align 1
  %74 = sext i8 %73 to i32
  %75 = icmp ne i32 %74, 65
  br i1 %75, label %76, label %104

76:                                               ; preds = %68
  %77 = getelementptr inbounds [1 x [501 x i8]], [1 x [501 x i8]]* %8, i64 0, i64 0
  %78 = load i32, i32* %4, align 4
  %79 = sext i32 %78 to i64
  %80 = getelementptr inbounds [501 x i8], [501 x i8]* %77, i64 0, i64 %79
  %81 = load i8, i8* %80, align 1
  %82 = sext i8 %81 to i32
  %83 = icmp ne i32 %82, 84
  br i1 %83, label %84, label %104

84:                                               ; preds = %76
  %85 = getelementptr inbounds [1 x [501 x i8]], [1 x [501 x i8]]* %8, i64 0, i64 0
  %86 = load i32, i32* %4, align 4
  %87 = sext i32 %86 to i64
  %88 = getelementptr inbounds [501 x i8], [501 x i8]* %85, i64 0, i64 %87
  %89 = load i8, i8* %88, align 1
  %90 = sext i8 %89 to i32
  %91 = icmp ne i32 %90, 67
  br i1 %91, label %92, label %104

92:                                               ; preds = %84
  %93 = getelementptr inbounds [1 x [501 x i8]], [1 x [501 x i8]]* %8, i64 0, i64 0
  %94 = load i32, i32* %4, align 4
  %95 = sext i32 %94 to i64
  %96 = getelementptr inbounds [501 x i8], [501 x i8]* %93, i64 0, i64 %95
  %97 = load i8, i8* %96, align 1
  %98 = sext i8 %97 to i32
  %99 = icmp ne i32 %98, 71
  br i1 %99, label %100, label %104

100:                                              ; preds = %92, %60
  %101 = call i32 (i8*, ...) @printf(i8* getelementptr inbounds ([6 x i8], [6 x i8]* @.str.1, i64 0, i64 0))
  %102 = load i32, i32* %6, align 4
  %103 = add nsw i32 %102, 1
  store i32 %103, i32* %6, align 4
  br label %126

104:                                              ; preds = %92, %84, %76, %68
  %105 = getelementptr inbounds [1 x [501 x i8]], [1 x [501 x i8]]* %7, i64 0, i64 0
  %106 = load i32, i32* %4, align 4
  %107 = sext i32 %106 to i64
  %108 = getelementptr inbounds [501 x i8], [501 x i8]* %105, i64 0, i64 %107
  %109 = load i8, i8* %108, align 1
  %110 = sext i8 %109 to i32
  %111 = getelementptr inbounds [1 x [501 x i8]], [1 x [501 x i8]]* %8, i64 0, i64 0
  %112 = load i32, i32* %4, align 4
  %113 = sext i32 %112 to i64
  %114 = getelementptr inbounds [501 x i8], [501 x i8]* %111, i64 0, i64 %113
  %115 = load i8, i8* %114, align 1
  %116 = sext i8 %115 to i32
  %117 = icmp eq i32 %110, %116
  br i1 %117, label %118, label %121

118:                                              ; preds = %104
  %119 = load i32, i32* %5, align 4
  %120 = add nsw i32 %119, 1
  store i32 %120, i32* %5, align 4
  br label %121

121:                                              ; preds = %118, %104
  br label %122

122:                                              ; preds = %121
  br label %123

123:                                              ; preds = %122
  %124 = load i32, i32* %4, align 4
  %125 = add nsw i32 %124, 1
  store i32 %125, i32* %4, align 4
  br label %32

126:                                              ; preds = %100, %32
  br label %127

127:                                              ; preds = %126, %27
  %128 = load i32, i32* %6, align 4
  %129 = icmp eq i32 %128, 0
  br i1 %129, label %130, label %145

130:                                              ; preds = %127
  %131 = load i32, i32* %5, align 4
  %132 = sitofp i32 %131 to double
  %133 = fmul double 1.000000e+00, %132
  %134 = load i32, i32* %2, align 4
  %135 = sitofp i32 %134 to double
  %136 = fdiv double %133, %135
  store double %136, double* %10, align 8
  %137 = load double, double* %10, align 8
  %138 = load double, double* %9, align 8
  %139 = fcmp ogt double %137, %138
  br i1 %139, label %140, label %142

140:                                              ; preds = %130
  %141 = call i32 (i8*, ...) @printf(i8* getelementptr inbounds ([4 x i8], [4 x i8]* @.str.2, i64 0, i64 0))
  br label %144

142:                                              ; preds = %130
  %143 = call i32 (i8*, ...) @printf(i8* getelementptr inbounds ([3 x i8], [3 x i8]* @.str.3, i64 0, i64 0))
  br label %144

144:                                              ; preds = %142, %140
  br label %145

145:                                              ; preds = %144, %127
  ret i32 0
}

declare dso_local i32 @__isoc99_scanf(i8*, ...) #1

; Function Attrs: nounwind readonly
declare dso_local i64 @strlen(i8*) #2

declare dso_local i32 @printf(i8*, ...) #1


!llvm.module.flags = !{!0}
!llvm.ident = !{!1}

!0 = !{i32 1, !"wchar_size", i32 4}
!1 = !{!"clang version 10.0.0-4ubuntu1 "}
